; Function Attrs: mustprogress uwtable
define internal noundef i32 @_ZL9b_extractP9lua_State(ptr noundef %0) #0 {
  %2 = tail call noundef i32 @_Z18luaL_checkunsignedP9lua_Statei(ptr noundef %0, i32 noundef 1)
  %3 = tail call noundef i32 @_Z17luaL_checkintegerP9lua_Statei(ptr noundef %0, i32 noundef 2)
  %4 = tail call noundef i32 @_Z15luaL_optintegerP9lua_Stateii(ptr noundef %0, i32 noundef 3, i32 noundef 1)
  %5 = icmp sgt i32 %3, -1
  br i1 %5, label %7, label %6

6:                                                ; preds = %1
  tail call void @_Z14luaL_argerrorLP9lua_StateiPKc(ptr noundef %0, i32 noundef 2, ptr noundef nonnull @.str.16) #4
  unreachable

7:                                                ; preds = %1
  %8 = icmp sgt i32 %4, 0
  br i1 %8, label %10, label %9

9:                                                ; preds = %7
  tail call void @_Z14luaL_argerrorLP9lua_StateiPKc(ptr noundef %0, i32 noundef 3, ptr noundef nonnull @.str.17) #4
  unreachable

10:                                               ; preds = %7
  %11 = add nuw nsw i32 %4, %3
  %12 = icmp samesign ugt i32 %11, 32
  br i1 %12, label %13, label %_ZL9fieldargsP9lua_StateiPi.exit

13:                                               ; preds = %10
  tail call void (ptr, ptr, ...) @_Z11luaL_errorLP9lua_StatePKcz(ptr noundef %0, ptr noundef nonnull @.str.18) #4
  unreachable

_ZL9fieldargsP9lua_StateiPi.exit:                 ; preds = %10
  %14 = lshr i32 %2, %3
  %15 = add nsw i32 %4, -1
  %16 = shl i32 -2, %15
  %17 = xor i32 %16, -1
  %18 = and i32 %14, %17
  tail call void @_Z16lua_pushunsignedP9lua_Statej(ptr noundef %0, i32 noundef %18)
  ret i32 1
}